target datalayout = "e-m:e-p270:32:32-p271:32:32-p272:64:64-i64:64-i128:128-f80:128-n8:16:32:64-S128"
target triple = "x86_64-unknown-linux-gnu"

%struct.DeviceState = type { %struct.Object, ptr, ptr, i8, i8, i64, ptr, i32, i8, ptr, %struct.NamedGPIOListHead, %struct.NamedClockListHead, %struct.BusStateHead, i32, i32, i32, %struct.ResettableState, ptr, %struct.MemReentrancyGuard }
%struct.Object = type { ptr, ptr, ptr, i32, ptr }
%struct.NamedGPIOListHead = type { ptr }
%struct.NamedClockListHead = type { ptr }
%struct.BusStateHead = type { ptr }
%struct.ResettableState = type { i32, i8, i8 }
%struct.MemReentrancyGuard = type { i8 }

@.str = private unnamed_addr constant [34 x i8] c"../qemu/hw/core/qdev-properties.c\00", align 1
@__func__.qdev_prop_allow_set_link_before_realize = private unnamed_addr constant [40 x i8] c"qdev_prop_allow_set_link_before_realize\00", align 1
@.str.3 = private unnamed_addr constant [83 x i8] c"Attempt to set link property '%s' on device '%s' (type '%s') after it was realized\00", align 1
@.str.21 = private unnamed_addr constant [7 x i8] c"device\00", align 1
@.str.26 = private unnamed_addr constant [101 x i8] c"/home/dtcxzyw/WorkSpace/Projects/compilers/llvm-opt-benchmark/bench/qemu/qemu/include/hw/qdev-core.h\00", align 1
@__func__.DEVICE = private unnamed_addr constant [7 x i8] c"DEVICE\00", align 1

; Function Attrs: nounwind sspstrong uwtable
define internal ptr @DEVICE(ptr noundef %obj) #0 {
entry:
  %obj.addr = alloca ptr, align 8
  store ptr %obj, ptr %obj.addr, align 8
  %0 = load ptr, ptr %obj.addr, align 8
  %call = call ptr @object_dynamic_cast_assert(ptr noundef %0, ptr noundef @.str.21, ptr noundef @.str.26, i32 noundef 77, ptr noundef @__func__.DEVICE)
  ret ptr %call
}

; Function Attrs: nounwind sspstrong uwtable
define dso_local void @qdev_prop_allow_set_link_before_realize(ptr noundef %obj, ptr noundef %name, ptr noundef %val, ptr noundef %errp) #0 {
entry:
  %obj.addr = alloca ptr, align 8
  %name.addr = alloca ptr, align 8
  %val.addr = alloca ptr, align 8
  %errp.addr = alloca ptr, align 8
  %dev = alloca ptr, align 8
  store ptr %obj, ptr %obj.addr, align 8
  store ptr %name, ptr %name.addr, align 8
  store ptr %val, ptr %val.addr, align 8
  store ptr %errp, ptr %errp.addr, align 8
  %0 = load ptr, ptr %obj.addr, align 8
  %call = call ptr @DEVICE(ptr noundef %0)
  store ptr %call, ptr %dev, align 8
  %1 = load ptr, ptr %dev, align 8
  %realized = getelementptr inbounds %struct.DeviceState, ptr %1, i32 0, i32 3
  %2 = load i8, ptr %realized, align 8
  %tobool = trunc i8 %2 to i1
  br i1 %tobool, label %if.then, label %if.end

if.then:                                          ; preds = %entry
  %3 = load ptr, ptr %errp.addr, align 8
  %4 = load ptr, ptr %name.addr, align 8
  %5 = load ptr, ptr %dev, align 8
  %id = getelementptr inbounds %struct.DeviceState, ptr %5, i32 0, i32 1
  %6 = load ptr, ptr %id, align 8
  %7 = load ptr, ptr %obj.addr, align 8
  %call1 = call ptr @object_get_typename(ptr noundef %7)
  call void (ptr, ptr, i32, ptr, ptr, ...) @error_setg_internal(ptr noundef %3, ptr noundef @.str, i32 noundef 51, ptr noundef @__func__.qdev_prop_allow_set_link_before_realize, ptr noundef @.str.3, ptr noundef %4, ptr noundef %6, ptr noundef %call1)
  br label %if.end

if.end:                                           ; preds = %if.then, %entry
  ret void
}