; Function Attrs: nounwind sspstrong uwtable
define dso_local void @qdev_prop_allow_set_link_before_realize(ptr noundef %obj, ptr noundef %name, ptr readnone captures(none) %val, ptr noundef %errp) #0 {
entry:
  %call.i = tail call ptr @object_dynamic_cast_assert(ptr noundef %obj, ptr noundef nonnull @.str.21, ptr noundef nonnull @.str.26, i32 noundef 77, ptr noundef nonnull @__func__.DEVICE) #9
  %realized = getelementptr inbounds nuw i8, ptr %call.i, i64 56
  %0 = load i8, ptr %realized, align 8
  %tobool = trunc i8 %0 to i1
  br i1 %tobool, label %if.then, label %if.end

if.then:                                          ; preds = %entry
  %id = getelementptr inbounds nuw i8, ptr %call.i, i64 40
  %1 = load ptr, ptr %id, align 8
  %call1 = tail call ptr @object_get_typename(ptr noundef %obj) #9
  tail call void (ptr, ptr, i32, ptr, ptr, ...) @error_setg_internal(ptr noundef %errp, ptr noundef nonnull @.str, i32 noundef 51, ptr noundef nonnull @__func__.qdev_prop_allow_set_link_before_realize, ptr noundef nonnull @.str.3, ptr noundef %name, ptr noundef %1, ptr noundef %call1) #9
  br label %if.end

if.end:                                           ; preds = %if.then, %entry
  ret void
}